; Function Attrs: mustprogress uwtable
define hidden void @_ZN4cvc58internal6theory12ModelManager10resetModelEv(ptr noundef nonnull align 8 captures(none) dereferenceable(122) initializes((120, 122)) %0) local_unnamed_addr #4 align 2 {
  %2 = getelementptr inbounds nuw i8, ptr %0, i64 120
  store i8 0, ptr %2, align 8, !tbaa !383
  %3 = getelementptr inbounds nuw i8, ptr %0, i64 121
  store i8 0, ptr %3, align 1, !tbaa !384
  %4 = getelementptr inbounds nuw i8, ptr %0, i64 96
  %5 = load ptr, ptr %4, align 8, !tbaa !215
  %6 = load ptr, ptr %5, align 8, !tbaa !3
  %7 = getelementptr inbounds nuw i8, ptr %6, i64 16
  %8 = load ptr, ptr %7, align 8
  tail call void %8(ptr noundef nonnull align 8 dereferenceable(968) %5)
  ret void
}